target datalayout = "e-m:e-p270:32:32-p271:32:32-p272:64:64-i64:64-i128:128-f80:128-n8:16:32:64-S128"
target triple = "x86_64-pc-linux-gnu"

; Function Attrs: nounwind sspstrong uwtable
define internal i64 @pm_encoding_gbk_char_width(ptr noundef %0, i64 noundef %1) #0 {
  %3 = alloca i64, align 8
  %4 = alloca ptr, align 8
  %5 = alloca i64, align 8
  store ptr %0, ptr %4, align 8, !tbaa !7
  store i64 %1, ptr %5, align 8, !tbaa !12
  %6 = load ptr, ptr %4, align 8, !tbaa !7
  %7 = load i8, ptr %6, align 1, !tbaa !16
  %8 = zext i8 %7 to i32
  %9 = icmp sle i32 %8, 128
  br i1 %9, label %10, label %11

10:                                               ; preds = %2
  store i64 1, ptr %3, align 8
  br label %232

11:                                               ; preds = %2
  %12 = load i64, ptr %5, align 8, !tbaa !12
  %13 = icmp sgt i64 %12, 1
  br i1 %13, label %14, label %231

14:                                               ; preds = %11
  %15 = load ptr, ptr %4, align 8, !tbaa !7
  %16 = getelementptr i8, ptr %15, i64 0
  %17 = load i8, ptr %16, align 1, !tbaa !16
  %18 = zext i8 %17 to i32
  %19 = icmp sge i32 %18, 161
  br i1 %19, label %20, label %38

20:                                               ; preds = %14
  %21 = load ptr, ptr %4, align 8, !tbaa !7
  %22 = getelementptr i8, ptr %21, i64 0
  %23 = load i8, ptr %22, align 1, !tbaa !16
  %24 = zext i8 %23 to i32
  %25 = icmp sle i32 %24, 169
  br i1 %25, label %26, label %38

26:                                               ; preds = %20
  %27 = load ptr, ptr %4, align 8, !tbaa !7
  %28 = getelementptr i8, ptr %27, i64 1
  %29 = load i8, ptr %28, align 1, !tbaa !16
  %30 = zext i8 %29 to i32
  %31 = icmp sge i32 %30, 161
  br i1 %31, label %32, label %38

32:                                               ; preds = %26
  %33 = load ptr, ptr %4, align 8, !tbaa !7
  %34 = getelementptr i8, ptr %33, i64 1
  %35 = load i8, ptr %34, align 1, !tbaa !16
  %36 = zext i8 %35 to i32
  %37 = icmp sle i32 %36, 254
  br i1 %37, label %230, label %38

38:                                               ; preds = %32, %26, %20, %14
  %39 = load ptr, ptr %4, align 8, !tbaa !7
  %40 = getelementptr i8, ptr %39, i64 0
  %41 = load i8, ptr %40, align 1, !tbaa !16
  %42 = zext i8 %41 to i32
  %43 = icmp sge i32 %42, 176
  br i1 %43, label %44, label %62

44:                                               ; preds = %38
  %45 = load ptr, ptr %4, align 8, !tbaa !7
  %46 = getelementptr i8, ptr %45, i64 0
  %47 = load i8, ptr %46, align 1, !tbaa !16
  %48 = zext i8 %47 to i32
  %49 = icmp sle i32 %48, 247
  br i1 %49, label %50, label %62

50:                                               ; preds = %44
  %51 = load ptr, ptr %4, align 8, !tbaa !7
  %52 = getelementptr i8, ptr %51, i64 1
  %53 = load i8, ptr %52, align 1, !tbaa !16
  %54 = zext i8 %53 to i32
  %55 = icmp sge i32 %54, 161
  br i1 %55, label %56, label %62

56:                                               ; preds = %50
  %57 = load ptr, ptr %4, align 8, !tbaa !7
  %58 = getelementptr i8, ptr %57, i64 1
  %59 = load i8, ptr %58, align 1, !tbaa !16
  %60 = zext i8 %59 to i32
  %61 = icmp sle i32 %60, 254
  br i1 %61, label %230, label %62

62:                                               ; preds = %56, %50, %44, %38
  %63 = load ptr, ptr %4, align 8, !tbaa !7
  %64 = getelementptr i8, ptr %63, i64 0
  %65 = load i8, ptr %64, align 1, !tbaa !16
  %66 = zext i8 %65 to i32
  %67 = icmp sge i32 %66, 129
  br i1 %67, label %68, label %92

68:                                               ; preds = %62
  %69 = load ptr, ptr %4, align 8, !tbaa !7
  %70 = getelementptr i8, ptr %69, i64 0
  %71 = load i8, ptr %70, align 1, !tbaa !16
  %72 = zext i8 %71 to i32
  %73 = icmp sle i32 %72, 160
  br i1 %73, label %74, label %92

74:                                               ; preds = %68
  %75 = load ptr, ptr %4, align 8, !tbaa !7
  %76 = getelementptr i8, ptr %75, i64 1
  %77 = load i8, ptr %76, align 1, !tbaa !16
  %78 = zext i8 %77 to i32
  %79 = icmp sge i32 %78, 64
  br i1 %79, label %80, label %92

80:                                               ; preds = %74
  %81 = load ptr, ptr %4, align 8, !tbaa !7
  %82 = getelementptr i8, ptr %81, i64 1
  %83 = load i8, ptr %82, align 1, !tbaa !16
  %84 = zext i8 %83 to i32
  %85 = icmp sle i32 %84, 254
  br i1 %85, label %86, label %92

86:                                               ; preds = %80
  %87 = load ptr, ptr %4, align 8, !tbaa !7
  %88 = getelementptr i8, ptr %87, i64 1
  %89 = load i8, ptr %88, align 1, !tbaa !16
  %90 = zext i8 %89 to i32
  %91 = icmp ne i32 %90, 127
  br i1 %91, label %230, label %92

92:                                               ; preds = %86, %80, %74, %68, %62
  %93 = load ptr, ptr %4, align 8, !tbaa !7
  %94 = getelementptr i8, ptr %93, i64 0
  %95 = load i8, ptr %94, align 1, !tbaa !16
  %96 = zext i8 %95 to i32
  %97 = icmp sge i32 %96, 170
  br i1 %97, label %98, label %122

98:                                               ; preds = %92
  %99 = load ptr, ptr %4, align 8, !tbaa !7
  %100 = getelementptr i8, ptr %99, i64 0
  %101 = load i8, ptr %100, align 1, !tbaa !16
  %102 = zext i8 %101 to i32
  %103 = icmp sle i32 %102, 254
  br i1 %103, label %104, label %122

104:                                              ; preds = %98
  %105 = load ptr, ptr %4, align 8, !tbaa !7
  %106 = getelementptr i8, ptr %105, i64 1
  %107 = load i8, ptr %106, align 1, !tbaa !16
  %108 = zext i8 %107 to i32
  %109 = icmp sge i32 %108, 64
  br i1 %109, label %110, label %122

110:                                              ; preds = %104
  %111 = load ptr, ptr %4, align 8, !tbaa !7
  %112 = getelementptr i8, ptr %111, i64 1
  %113 = load i8, ptr %112, align 1, !tbaa !16
  %114 = zext i8 %113 to i32
  %115 = icmp sle i32 %114, 160
  br i1 %115, label %116, label %122

116:                                              ; preds = %110
  %117 = load ptr, ptr %4, align 8, !tbaa !7
  %118 = getelementptr i8, ptr %117, i64 1
  %119 = load i8, ptr %118, align 1, !tbaa !16
  %120 = zext i8 %119 to i32
  %121 = icmp ne i32 %120, 127
  br i1 %121, label %230, label %122

122:                                              ; preds = %116, %110, %104, %98, %92
  %123 = load ptr, ptr %4, align 8, !tbaa !7
  %124 = getelementptr i8, ptr %123, i64 0
  %125 = load i8, ptr %124, align 1, !tbaa !16
  %126 = zext i8 %125 to i32
  %127 = icmp sge i32 %126, 168
  br i1 %127, label %128, label %152

128:                                              ; preds = %122
  %129 = load ptr, ptr %4, align 8, !tbaa !7
  %130 = getelementptr i8, ptr %129, i64 0
  %131 = load i8, ptr %130, align 1, !tbaa !16
  %132 = zext i8 %131 to i32
  %133 = icmp sle i32 %132, 169
  br i1 %133, label %134, label %152

134:                                              ; preds = %128
  %135 = load ptr, ptr %4, align 8, !tbaa !7
  %136 = getelementptr i8, ptr %135, i64 1
  %137 = load i8, ptr %136, align 1, !tbaa !16
  %138 = zext i8 %137 to i32
  %139 = icmp sge i32 %138, 64
  br i1 %139, label %140, label %152

140:                                              ; preds = %134
  %141 = load ptr, ptr %4, align 8, !tbaa !7
  %142 = getelementptr i8, ptr %141, i64 1
  %143 = load i8, ptr %142, align 1, !tbaa !16
  %144 = zext i8 %143 to i32
  %145 = icmp sle i32 %144, 160
  br i1 %145, label %146, label %152

146:                                              ; preds = %140
  %147 = load ptr, ptr %4, align 8, !tbaa !7
  %148 = getelementptr i8, ptr %147, i64 1
  %149 = load i8, ptr %148, align 1, !tbaa !16
  %150 = zext i8 %149 to i32
  %151 = icmp ne i32 %150, 127
  br i1 %151, label %230, label %152

152:                                              ; preds = %146, %140, %134, %128, %122
  %153 = load ptr, ptr %4, align 8, !tbaa !7
  %154 = getelementptr i8, ptr %153, i64 0
  %155 = load i8, ptr %154, align 1, !tbaa !16
  %156 = zext i8 %155 to i32
  %157 = icmp sge i32 %156, 170
  br i1 %157, label %158, label %176

158:                                              ; preds = %152
  %159 = load ptr, ptr %4, align 8, !tbaa !7
  %160 = getelementptr i8, ptr %159, i64 0
  %161 = load i8, ptr %160, align 1, !tbaa !16
  %162 = zext i8 %161 to i32
  %163 = icmp sle i32 %162, 175
  br i1 %163, label %164, label %176

164:                                              ; preds = %158
  %165 = load ptr, ptr %4, align 8, !tbaa !7
  %166 = getelementptr i8, ptr %165, i64 1
  %167 = load i8, ptr %166, align 1, !tbaa !16
  %168 = zext i8 %167 to i32
  %169 = icmp sge i32 %168, 161
  br i1 %169, label %170, label %176

170:                                              ; preds = %164
  %171 = load ptr, ptr %4, align 8, !tbaa !7
  %172 = getelementptr i8, ptr %171, i64 1
  %173 = load i8, ptr %172, align 1, !tbaa !16
  %174 = zext i8 %173 to i32
  %175 = icmp sle i32 %174, 254
  br i1 %175, label %230, label %176

176:                                              ; preds = %170, %164, %158, %152
  %177 = load ptr, ptr %4, align 8, !tbaa !7
  %178 = getelementptr i8, ptr %177, i64 0
  %179 = load i8, ptr %178, align 1, !tbaa !16
  %180 = zext i8 %179 to i32
  %181 = icmp sge i32 %180, 248
  br i1 %181, label %182, label %200

182:                                              ; preds = %176
  %183 = load ptr, ptr %4, align 8, !tbaa !7
  %184 = getelementptr i8, ptr %183, i64 0
  %185 = load i8, ptr %184, align 1, !tbaa !16
  %186 = zext i8 %185 to i32
  %187 = icmp sle i32 %186, 254
  br i1 %187, label %188, label %200

188:                                              ; preds = %182
  %189 = load ptr, ptr %4, align 8, !tbaa !7
  %190 = getelementptr i8, ptr %189, i64 1
  %191 = load i8, ptr %190, align 1, !tbaa !16
  %192 = zext i8 %191 to i32
  %193 = icmp sge i32 %192, 161
  br i1 %193, label %194, label %200

194:                                              ; preds = %188
  %195 = load ptr, ptr %4, align 8, !tbaa !7
  %196 = getelementptr i8, ptr %195, i64 1
  %197 = load i8, ptr %196, align 1, !tbaa !16
  %198 = zext i8 %197 to i32
  %199 = icmp sle i32 %198, 254
  br i1 %199, label %230, label %200

200:                                              ; preds = %194, %188, %182, %176
  %201 = load ptr, ptr %4, align 8, !tbaa !7
  %202 = getelementptr i8, ptr %201, i64 0
  %203 = load i8, ptr %202, align 1, !tbaa !16
  %204 = zext i8 %203 to i32
  %205 = icmp sge i32 %204, 161
  br i1 %205, label %206, label %231

206:                                              ; preds = %200
  %207 = load ptr, ptr %4, align 8, !tbaa !7
  %208 = getelementptr i8, ptr %207, i64 0
  %209 = load i8, ptr %208, align 1, !tbaa !16
  %210 = zext i8 %209 to i32
  %211 = icmp sle i32 %210, 167
  br i1 %211, label %212, label %231

212:                                              ; preds = %206
  %213 = load ptr, ptr %4, align 8, !tbaa !7
  %214 = getelementptr i8, ptr %213, i64 1
  %215 = load i8, ptr %214, align 1, !tbaa !16
  %216 = zext i8 %215 to i32
  %217 = icmp sge i32 %216, 64
  br i1 %217, label %218, label %231

218:                                              ; preds = %212
  %219 = load ptr, ptr %4, align 8, !tbaa !7
  %220 = getelementptr i8, ptr %219, i64 1
  %221 = load i8, ptr %220, align 1, !tbaa !16
  %222 = zext i8 %221 to i32
  %223 = icmp sle i32 %222, 160
  br i1 %223, label %224, label %231

224:                                              ; preds = %218
  %225 = load ptr, ptr %4, align 8, !tbaa !7
  %226 = getelementptr i8, ptr %225, i64 1
  %227 = load i8, ptr %226, align 1, !tbaa !16
  %228 = zext i8 %227 to i32
  %229 = icmp ne i32 %228, 127
  br i1 %229, label %230, label %231

230:                                              ; preds = %224, %194, %170, %146, %116, %86, %56, %32
  store i64 2, ptr %3, align 8
  br label %232

231:                                              ; preds = %224, %218, %212, %206, %200, %11
  store i64 0, ptr %3, align 8
  br label %232

232:                                              ; preds = %231, %230, %10
  %233 = load i64, ptr %3, align 8
  ret i64 %233
}